target datalayout = "e-m:e-p270:32:32-p271:32:32-p272:64:64-i64:64-i128:128-f80:128-n8:16:32:64-S128"
target triple = "x86_64-pc-linux-gnu"

%struct.SDL_Renderer = type { ptr, ptr, ptr, ptr, ptr, ptr, ptr, ptr, ptr, ptr, ptr, ptr, ptr, ptr, ptr, ptr, ptr, ptr, ptr, ptr, ptr, ptr, ptr, ptr, ptr, ptr, ptr, ptr, ptr, ptr, i32, i8, ptr, i8, i8, i8, i64, i64, ptr, %struct.SDL_RenderViewState, %struct.SDL_FPoint, i32, i32, ptr, ptr, ptr, i32, float, float, float, float, %struct.SDL_FColor, i32, i32, i32, ptr, ptr, ptr, ptr, i32, %struct.SDL_FColor, float, %struct.SDL_Rect, %struct.SDL_Rect, i8, i8, i8, i8, ptr, i64, i64, i8, ptr, ptr, i32, ptr, i8, ptr, ptr }
%struct.SDL_RenderViewState = type { i32, i32, %struct.SDL_Rect, %struct.SDL_Rect, %struct.SDL_Rect, %struct.SDL_Rect, i8, %struct.SDL_FPoint, i32, i32, i32, %struct.SDL_FRect, %struct.SDL_FRect, %struct.SDL_FPoint, %struct.SDL_FPoint, %struct.SDL_FPoint }
%struct.SDL_FRect = type { float, float, float, float }
%struct.SDL_FPoint = type { float, float }
%struct.SDL_FColor = type { float, float, float, float }
%struct.SDL_Rect = type { i32, i32, i32, i32 }
%struct.GL_RenderData = type { ptr, i8, i8, i32, ptr, ptr, ptr, i32, i8, i8, i8, ptr, ptr, ptr, ptr, ptr, ptr, ptr, ptr, ptr, ptr, ptr, ptr, ptr, ptr, ptr, ptr, ptr, ptr, ptr, ptr, ptr, ptr, ptr, ptr, ptr, ptr, ptr, ptr, ptr, ptr, ptr, ptr, ptr, ptr, ptr, ptr, ptr, ptr, ptr, ptr, ptr, ptr, ptr, ptr, ptr, ptr, ptr, ptr, ptr, i8, ptr, i32, ptr, ptr, ptr, ptr, ptr, ptr, %struct.GL_DrawStateCache }
%struct.GL_DrawStateCache = type { i8, %struct.SDL_Rect, ptr, ptr, i32, i32, i32, i32, [4 x float], ptr, i8, i8, i8, %struct.SDL_Rect, i8, i8, i8, i8, i8, i8, %struct.SDL_FColor, i8, %struct.SDL_FColor }
%struct.SDL_Texture = type { i32, i32, i32, i32, i32, float, float, i32, i32, i32, %struct.SDL_FColor, %struct.SDL_RenderViewState, ptr, ptr, ptr, ptr, i32, %struct.SDL_Rect, ptr, i32, i32, ptr, ptr, ptr }
%struct.SDL_Surface = type { i32, i32, i32, i32, i32, ptr, i32, ptr, i32, i32, ptr, i32, ptr, i32, ptr, i32, %struct.SDL_Rect, %struct.SDL_BlitMap }
%struct.SDL_BlitMap = type { i32, ptr, ptr, %struct.SDL_BlitInfo, i32, i32 }
%struct.SDL_BlitInfo = type { ptr, ptr, i32, i32, i32, i32, ptr, ptr, i32, i32, i32, i32, ptr, ptr, ptr, ptr, ptr, ptr, i32, i32, i8, i8, i8, i8 }

@.str.22 = private unnamed_addr constant [42 x i8] c"Texture format %s not supported by OpenGL\00", align 1
@.str.25 = private unnamed_addr constant [119 x i8] c"generated/home/dtcxzyw/WorkSpace/Projects/compilers/llvm-opt-benchmark/bench/sdl/SDL/src/render/opengl/SDL_render_gl.c\00", align 1
@.str.56 = private unnamed_addr constant [15 x i8] c"glReadPixels()\00", align 1
@__func__.GL_RenderReadPixels = private unnamed_addr constant [20 x i8] c"GL_RenderReadPixels\00", align 1

; Function Attrs: nounwind uwtable
define internal zeroext i1 @convert_format(i32 noundef %0, ptr noundef %1, ptr noundef %2, ptr noundef %3) #0 {
  %5 = alloca i1, align 1
  %6 = alloca i32, align 4
  %7 = alloca ptr, align 8
  %8 = alloca ptr, align 8
  %9 = alloca ptr, align 8
  store i32 %0, ptr %6, align 4
  store ptr %1, ptr %7, align 8
  store ptr %2, ptr %8, align 8
  store ptr %3, ptr %9, align 8
  %10 = load i32, ptr %6, align 4
  switch i32 %10, label %23 [
    i32 372645892, label %11
    i32 370546692, label %11
    i32 376840196, label %15
    i32 374740996, label %15
    i32 842094169, label %19
    i32 1448433993, label %19
    i32 842094158, label %19
    i32 825382478, label %19
  ]

11:                                               ; preds = %4, %4
  %12 = load ptr, ptr %7, align 8
  store i32 32856, ptr %12, align 4
  %13 = load ptr, ptr %8, align 8
  store i32 32993, ptr %13, align 4
  %14 = load ptr, ptr %9, align 8
  store i32 5121, ptr %14, align 4
  br label %24

15:                                               ; preds = %4, %4
  %16 = load ptr, ptr %7, align 8
  store i32 32856, ptr %16, align 4
  %17 = load ptr, ptr %8, align 8
  store i32 6408, ptr %17, align 4
  %18 = load ptr, ptr %9, align 8
  store i32 5121, ptr %18, align 4
  br label %24

19:                                               ; preds = %4, %4, %4, %4
  %20 = load ptr, ptr %7, align 8
  store i32 6409, ptr %20, align 4
  %21 = load ptr, ptr %8, align 8
  store i32 6409, ptr %21, align 4
  %22 = load ptr, ptr %9, align 8
  store i32 5121, ptr %22, align 4
  br label %24

23:                                               ; preds = %4
  store i1 false, ptr %5, align 1
  br label %25

24:                                               ; preds = %19, %15, %11
  store i1 true, ptr %5, align 1
  br label %25

25:                                               ; preds = %24, %23
  %26 = load i1, ptr %5, align 1
  ret i1 %26
}

; Function Attrs: nounwind uwtable
define internal ptr @GL_RenderReadPixels(ptr noundef %0, ptr noundef %1) #0 {
  %3 = alloca ptr, align 8
  %4 = alloca ptr, align 8
  %5 = alloca ptr, align 8
  %6 = alloca ptr, align 8
  %7 = alloca i32, align 4
  %8 = alloca i32, align 4
  %9 = alloca i32, align 4
  %10 = alloca i32, align 4
  %11 = alloca ptr, align 8
  %12 = alloca i32, align 4
  %13 = alloca i32, align 4
  %14 = alloca i32, align 4
  %15 = alloca i32, align 4
  store ptr %0, ptr %4, align 8
  store ptr %1, ptr %5, align 8
  call void @llvm.lifetime.start.p0(i64 8, ptr %6) #4
  %16 = load ptr, ptr %4, align 8
  %17 = getelementptr inbounds nuw %struct.SDL_Renderer, ptr %16, i32 0, i32 77
  %18 = load ptr, ptr %17, align 8
  store ptr %18, ptr %6, align 8
  call void @llvm.lifetime.start.p0(i64 4, ptr %7) #4
  %19 = load ptr, ptr %4, align 8
  %20 = getelementptr inbounds nuw %struct.SDL_Renderer, ptr %19, i32 0, i32 44
  %21 = load ptr, ptr %20, align 8
  %22 = icmp ne ptr %21, null
  br i1 %22, label %23, label %29

23:                                               ; preds = %2
  %24 = load ptr, ptr %4, align 8
  %25 = getelementptr inbounds nuw %struct.SDL_Renderer, ptr %24, i32 0, i32 44
  %26 = load ptr, ptr %25, align 8
  %27 = getelementptr inbounds nuw %struct.SDL_Texture, ptr %26, i32 0, i32 0
  %28 = load i32, ptr %27, align 8
  br label %30

29:                                               ; preds = %2
  br label %30

30:                                               ; preds = %29, %23
  %31 = phi i32 [ %28, %23 ], [ 372645892, %29 ]
  store i32 %31, ptr %7, align 4
  call void @llvm.lifetime.start.p0(i64 4, ptr %8) #4
  call void @llvm.lifetime.start.p0(i64 4, ptr %9) #4
  call void @llvm.lifetime.start.p0(i64 4, ptr %10) #4
  call void @llvm.lifetime.start.p0(i64 8, ptr %11) #4
  %32 = load ptr, ptr %4, align 8
  %33 = call zeroext i1 @GL_ActivateRenderer(ptr noundef %32)
  %34 = load i32, ptr %7, align 4
  %35 = call zeroext i1 @convert_format(i32 noundef %34, ptr noundef %8, ptr noundef %9, ptr noundef %10)
  br i1 %35, label %40, label %36

36:                                               ; preds = %30
  %37 = load i32, ptr %7, align 4
  %38 = call ptr @SDL_GetPixelFormatName_REAL(i32 noundef %37)
  %39 = call zeroext i1 (ptr, ...) @SDL_SetError_REAL(ptr noundef @.str.22, ptr noundef %38)
  store ptr null, ptr %3, align 8
  store i32 1, ptr %12, align 4
  br label %142

40:                                               ; preds = %30
  %41 = load ptr, ptr %5, align 8
  %42 = getelementptr inbounds nuw %struct.SDL_Rect, ptr %41, i32 0, i32 2
  %43 = load i32, ptr %42, align 4
  %44 = load ptr, ptr %5, align 8
  %45 = getelementptr inbounds nuw %struct.SDL_Rect, ptr %44, i32 0, i32 3
  %46 = load i32, ptr %45, align 4
  %47 = load i32, ptr %7, align 4
  %48 = call ptr @SDL_CreateSurface_REAL(i32 noundef %43, i32 noundef %46, i32 noundef %47)
  store ptr %48, ptr %11, align 8
  %49 = load ptr, ptr %11, align 8
  %50 = icmp ne ptr %49, null
  br i1 %50, label %52, label %51

51:                                               ; preds = %40
  store ptr null, ptr %3, align 8
  store i32 1, ptr %12, align 4
  br label %142

52:                                               ; preds = %40
  call void @llvm.lifetime.start.p0(i64 4, ptr %13) #4
  %53 = load ptr, ptr %5, align 8
  %54 = getelementptr inbounds nuw %struct.SDL_Rect, ptr %53, i32 0, i32 1
  %55 = load i32, ptr %54, align 4
  store i32 %55, ptr %13, align 4
  %56 = load ptr, ptr %4, align 8
  %57 = getelementptr inbounds nuw %struct.SDL_Renderer, ptr %56, i32 0, i32 44
  %58 = load ptr, ptr %57, align 8
  %59 = icmp ne ptr %58, null
  br i1 %59, label %70, label %60

60:                                               ; preds = %52
  call void @llvm.lifetime.start.p0(i64 4, ptr %14) #4
  call void @llvm.lifetime.start.p0(i64 4, ptr %15) #4
  %61 = load ptr, ptr %4, align 8
  %62 = call zeroext i1 @SDL_GetRenderOutputSize_REAL(ptr noundef %61, ptr noundef %14, ptr noundef %15)
  %63 = load i32, ptr %15, align 4
  %64 = load i32, ptr %13, align 4
  %65 = sub nsw i32 %63, %64
  %66 = load ptr, ptr %5, align 8
  %67 = getelementptr inbounds nuw %struct.SDL_Rect, ptr %66, i32 0, i32 3
  %68 = load i32, ptr %67, align 4
  %69 = sub nsw i32 %65, %68
  store i32 %69, ptr %13, align 4
  call void @llvm.lifetime.end.p0(i64 4, ptr %15) #4
  call void @llvm.lifetime.end.p0(i64 4, ptr %14) #4
  br label %70

70:                                               ; preds = %60, %52
  %71 = load ptr, ptr %6, align 8
  %72 = getelementptr inbounds nuw %struct.GL_RenderData, ptr %71, i32 0, i32 41
  %73 = load ptr, ptr %72, align 8
  call void %73(i32 noundef 3333, i32 noundef 1)
  %74 = load ptr, ptr %6, align 8
  %75 = getelementptr inbounds nuw %struct.GL_RenderData, ptr %74, i32 0, i32 41
  %76 = load ptr, ptr %75, align 8
  %77 = load ptr, ptr %11, align 8
  %78 = getelementptr inbounds nuw %struct.SDL_Surface, ptr %77, i32 0, i32 4
  %79 = load i32, ptr %78, align 8
  %80 = load i32, ptr %7, align 4
  %81 = icmp ne i32 %80, 0
  br i1 %81, label %82, label %102

82:                                               ; preds = %70
  %83 = load i32, ptr %7, align 4
  %84 = lshr i32 %83, 28
  %85 = and i32 %84, 15
  %86 = icmp ne i32 %85, 1
  br i1 %86, label %87, label %102

87:                                               ; preds = %82
  %88 = load i32, ptr %7, align 4
  %89 = icmp eq i32 %88, 844715353
  br i1 %89, label %99, label %90

90:                                               ; preds = %87
  %91 = load i32, ptr %7, align 4
  %92 = icmp eq i32 %91, 1498831189
  br i1 %92, label %99, label %93

93:                                               ; preds = %90
  %94 = load i32, ptr %7, align 4
  %95 = icmp eq i32 %94, 1431918169
  br i1 %95, label %99, label %96

96:                                               ; preds = %93
  %97 = load i32, ptr %7, align 4
  %98 = icmp eq i32 %97, 808530000
  br label %99

99:                                               ; preds = %96, %93, %90, %87
  %100 = phi i1 [ true, %93 ], [ true, %90 ], [ true, %87 ], [ %98, %96 ]
  %101 = select i1 %100, i32 2, i32 1
  br label %106

102:                                              ; preds = %82, %70
  %103 = load i32, ptr %7, align 4
  %104 = lshr i32 %103, 0
  %105 = and i32 %104, 255
  br label %106

106:                                              ; preds = %102, %99
  %107 = phi i32 [ %101, %99 ], [ %105, %102 ]
  %108 = udiv i32 %79, %107
  call void %76(i32 noundef 3330, i32 noundef %108)
  %109 = load ptr, ptr %6, align 8
  %110 = getelementptr inbounds nuw %struct.GL_RenderData, ptr %109, i32 0, i32 45
  %111 = load ptr, ptr %110, align 8
  %112 = load ptr, ptr %5, align 8
  %113 = getelementptr inbounds nuw %struct.SDL_Rect, ptr %112, i32 0, i32 0
  %114 = load i32, ptr %113, align 4
  %115 = load i32, ptr %13, align 4
  %116 = load ptr, ptr %5, align 8
  %117 = getelementptr inbounds nuw %struct.SDL_Rect, ptr %116, i32 0, i32 2
  %118 = load i32, ptr %117, align 4
  %119 = load ptr, ptr %5, align 8
  %120 = getelementptr inbounds nuw %struct.SDL_Rect, ptr %119, i32 0, i32 3
  %121 = load i32, ptr %120, align 4
  %122 = load i32, ptr %9, align 4
  %123 = load i32, ptr %10, align 4
  %124 = load ptr, ptr %11, align 8
  %125 = getelementptr inbounds nuw %struct.SDL_Surface, ptr %124, i32 0, i32 5
  %126 = load ptr, ptr %125, align 8
  call void %111(i32 noundef %114, i32 noundef %115, i32 noundef %118, i32 noundef %121, i32 noundef %122, i32 noundef %123, ptr noundef %126)
  %127 = load ptr, ptr %4, align 8
  %128 = call zeroext i1 @GL_CheckAllErrors(ptr noundef @.str.56, ptr noundef %127, ptr noundef @.str.25, i32 noundef 1531, ptr noundef @__func__.GL_RenderReadPixels)
  br i1 %128, label %131, label %129

129:                                              ; preds = %106
  %130 = load ptr, ptr %11, align 8
  call void @SDL_DestroySurface_REAL(ptr noundef %130)
  store ptr null, ptr %3, align 8
  store i32 1, ptr %12, align 4
  br label %141

131:                                              ; preds = %106
  %132 = load ptr, ptr %4, align 8
  %133 = getelementptr inbounds nuw %struct.SDL_Renderer, ptr %132, i32 0, i32 44
  %134 = load ptr, ptr %133, align 8
  %135 = icmp ne ptr %134, null
  br i1 %135, label %139, label %136

136:                                              ; preds = %131
  %137 = load ptr, ptr %11, align 8
  %138 = call zeroext i1 @SDL_FlipSurface_REAL(ptr noundef %137, i32 noundef 2)
  br label %139

139:                                              ; preds = %136, %131
  %140 = load ptr, ptr %11, align 8
  store ptr %140, ptr %3, align 8
  store i32 1, ptr %12, align 4
  br label %141

141:                                              ; preds = %139, %129
  call void @llvm.lifetime.end.p0(i64 4, ptr %13) #4
  br label %142

142:                                              ; preds = %141, %51, %36
  call void @llvm.lifetime.end.p0(i64 8, ptr %11) #4
  call void @llvm.lifetime.end.p0(i64 4, ptr %10) #4
  call void @llvm.lifetime.end.p0(i64 4, ptr %9) #4
  call void @llvm.lifetime.end.p0(i64 4, ptr %8) #4
  call void @llvm.lifetime.end.p0(i64 4, ptr %7) #4
  call void @llvm.lifetime.end.p0(i64 8, ptr %6) #4
  %143 = load ptr, ptr %3, align 8
  ret ptr %143
}