; Function Attrs: nounwind uwtable
define internal ptr @GL_RenderReadPixels(ptr noundef %0, ptr noundef readonly captures(none) %1) #0 {
  %3 = alloca i32, align 4
  %4 = alloca i32, align 4
  %5 = getelementptr inbounds nuw i8, ptr %0, i64 696
  %6 = load ptr, ptr %5, align 8
  %7 = getelementptr inbounds nuw i8, ptr %0, i64 464
  %8 = load ptr, ptr %7, align 8
  %.not = icmp eq ptr %8, null
  br i1 %.not, label %.thread, label %10

.thread:                                          ; preds = %2
  %9 = tail call fastcc zeroext i1 @GL_ActivateRenderer(ptr noundef nonnull %0)
  br label %16

10:                                               ; preds = %2
  %11 = load i32, ptr %8, align 8
  %12 = tail call fastcc zeroext i1 @GL_ActivateRenderer(ptr noundef nonnull %0)
  switch i32 %11, label %convert_format.exit [
    i32 372645892, label %.sink.split.i
    i32 370546692, label %.sink.split.i
    i32 376840196, label %16
    i32 374740996, label %16
    i32 842094169, label %13
    i32 1448433993, label %13
    i32 842094158, label %13
    i32 825382478, label %13
  ]

13:                                               ; preds = %10, %10, %10, %10
  br label %16

.sink.split.i:                                    ; preds = %10, %10
  br label %16

convert_format.exit:                              ; preds = %10
  %14 = tail call ptr @SDL_GetPixelFormatName_REAL(i32 noundef %11) #7
  %15 = tail call zeroext i1 (ptr, ...) @SDL_SetError_REAL(ptr noundef nonnull @.str.22, ptr noundef %14) #7
  br label %60

16:                                               ; preds = %10, %10, %.thread, %13, %.sink.split.i
  %.ph = phi i32 [ %11, %.sink.split.i ], [ 372645892, %.thread ], [ %11, %13 ], [ %11, %10 ], [ %11, %10 ]
  %.050.ph = phi i32 [ 32993, %.sink.split.i ], [ 32993, %.thread ], [ 6409, %13 ], [ 6408, %10 ], [ 6408, %10 ]
  %17 = getelementptr inbounds nuw i8, ptr %1, i64 8
  %18 = load i32, ptr %17, align 4
  %19 = getelementptr inbounds nuw i8, ptr %1, i64 12
  %20 = load i32, ptr %19, align 4
  %21 = tail call ptr @SDL_CreateSurface_REAL(i32 noundef %18, i32 noundef %20, i32 noundef %.ph) #7
  %.not43 = icmp eq ptr %21, null
  br i1 %.not43, label %60, label %22

22:                                               ; preds = %16
  %23 = getelementptr inbounds nuw i8, ptr %1, i64 4
  %24 = load i32, ptr %23, align 4
  %25 = load ptr, ptr %7, align 8
  %.not44 = icmp eq ptr %25, null
  br i1 %.not44, label %26, label %32

26:                                               ; preds = %22
  call void @llvm.lifetime.start.p0(i64 4, ptr nonnull %3) #7
  call void @llvm.lifetime.start.p0(i64 4, ptr nonnull %4) #7
  %27 = call zeroext i1 @SDL_GetRenderOutputSize_REAL(ptr noundef nonnull %0, ptr noundef nonnull %3, ptr noundef nonnull %4) #7
  %28 = load i32, ptr %4, align 4
  %29 = load i32, ptr %19, align 4
  %30 = add i32 %24, %29
  %31 = sub i32 %28, %30
  call void @llvm.lifetime.end.p0(i64 4, ptr nonnull %4) #7
  call void @llvm.lifetime.end.p0(i64 4, ptr nonnull %3) #7
  br label %32

32:                                               ; preds = %26, %22
  %.0 = phi i32 [ %24, %22 ], [ %31, %26 ]
  %33 = getelementptr inbounds nuw i8, ptr %6, i64 288
  %34 = load ptr, ptr %33, align 8
  call void %34(i32 noundef 3333, i32 noundef 1) #7
  %35 = load ptr, ptr %33, align 8
  %36 = getelementptr inbounds nuw i8, ptr %21, i64 16
  %37 = load i32, ptr %36, align 8
  %.mask = and i32 %.ph, -268435456
  %.not46 = icmp eq i32 %.mask, 268435456
  br i1 %.not46, label %42, label %38

38:                                               ; preds = %32
  switch i32 %.ph, label %39 [
    i32 844715353, label %44
    i32 1431918169, label %44
  ]

39:                                               ; preds = %38
  %40 = icmp eq i32 %.ph, 808530000
  %41 = select i1 %40, i32 2, i32 1
  br label %44

42:                                               ; preds = %32
  %43 = and i32 %.ph, 255
  br label %44

44:                                               ; preds = %38, %39, %38, %42
  %45 = phi i32 [ %43, %42 ], [ %41, %39 ], [ 2, %38 ], [ 2, %38 ]
  %46 = udiv i32 %37, %45
  call void %35(i32 noundef 3330, i32 noundef %46) #7
  %47 = getelementptr inbounds nuw i8, ptr %6, i64 320
  %48 = load ptr, ptr %47, align 8
  %49 = load i32, ptr %1, align 4
  %50 = load i32, ptr %17, align 4
  %51 = load i32, ptr %19, align 4
  %52 = getelementptr inbounds nuw i8, ptr %21, i64 24
  %53 = load ptr, ptr %52, align 8
  call void %48(i32 noundef %49, i32 noundef %.0, i32 noundef %50, i32 noundef %51, i32 noundef %.050.ph, i32 noundef 5121, ptr noundef %53) #7
  %54 = call fastcc zeroext i1 @GL_CheckAllErrors(ptr noundef nonnull @.str.56, ptr noundef nonnull %0, i32 noundef 1531, ptr noundef nonnull @__func__.GL_RenderReadPixels)
  br i1 %54, label %56, label %55

55:                                               ; preds = %44
  call void @SDL_DestroySurface_REAL(ptr noundef nonnull %21) #7
  br label %60

56:                                               ; preds = %44
  %57 = load ptr, ptr %7, align 8
  %.not47 = icmp eq ptr %57, null
  br i1 %.not47, label %58, label %60

58:                                               ; preds = %56
  %59 = call zeroext i1 @SDL_FlipSurface_REAL(ptr noundef nonnull %21, i32 noundef 2) #7
  br label %60

60:                                               ; preds = %55, %58, %56, %16, %convert_format.exit
  %.039 = phi ptr [ null, %convert_format.exit ], [ null, %16 ], [ null, %55 ], [ %21, %58 ], [ %21, %56 ]
  ret ptr %.039
}